; Function Attrs: mustprogress uwtable
define internal void @"_ZNSt17_Function_handlerIFN7rocksdb6StatusERKNS0_13ConfigOptionsERKNSt7__cxx1112basic_stringIcSt11char_traitsIcESaIcEEESC_PvENS0_3$_0EE9_M_invokeERKSt9_Any_dataS4_SC_SC_OSD_"(ptr dead_on_unwind noalias writable sret(%"class.rocksdb::Status") align 8 %0, ptr nonnull readnone align 8 captures(none) %1, ptr noundef nonnull align 8 dereferenceable(80) %2, ptr nonnull readnone align 8 captures(none) %3, ptr noundef nonnull align 8 dereferenceable(32) %4, ptr noundef nonnull readonly align 8 captures(none) dereferenceable(8) %5) #6 align 2 {
  %7 = alloca ptr, align 8
  %.val = load ptr, ptr %5, align 8, !tbaa !64
  tail call void @llvm.experimental.noalias.scope.decl(metadata !604)
  tail call void @llvm.experimental.noalias.scope.decl(metadata !607)
  tail call void @llvm.experimental.noalias.scope.decl(metadata !610)
  call void @llvm.lifetime.start.p0(i64 8, ptr nonnull %7) #27, !noalias !613
  %8 = load ptr, ptr %.val, align 8, !tbaa !614, !noalias !613
  store ptr %8, ptr %7, align 8, !tbaa !614, !noalias !613
  call void @_ZN7rocksdb3Env16CreateFromStringERKNS_13ConfigOptionsERKNSt7__cxx1112basic_stringIcSt11char_traitsIcESaIcEEEPPS0_(ptr dead_on_unwind writable sret(%"class.rocksdb::Status") align 8 %0, ptr noundef nonnull align 8 dereferenceable(80) %2, ptr noundef nonnull align 8 dereferenceable(32) %4, ptr noundef nonnull %7)
  %9 = load i8, ptr %0, align 8, !tbaa !331, !alias.scope !613
  %10 = icmp eq i8 %9, 0
  br i1 %10, label %11, label %"_ZSt10__invoke_rIN7rocksdb6StatusERNS0_3$_0EJRKNS0_13ConfigOptionsERKNSt7__cxx1112basic_stringIcSt11char_traitsIcESaIcEEESE_PvEENSt9enable_ifIX16is_invocable_r_vIT_T0_DpT1_EESH_E4typeEOSI_DpOSJ_.exit"

11:                                               ; preds = %6
  %12 = load ptr, ptr %7, align 8, !tbaa !614, !noalias !613
  store ptr %12, ptr %.val, align 8, !tbaa !614, !noalias !613
  br label %"_ZSt10__invoke_rIN7rocksdb6StatusERNS0_3$_0EJRKNS0_13ConfigOptionsERKNSt7__cxx1112basic_stringIcSt11char_traitsIcESaIcEEESE_PvEENSt9enable_ifIX16is_invocable_r_vIT_T0_DpT1_EESH_E4typeEOSI_DpOSJ_.exit"

"_ZSt10__invoke_rIN7rocksdb6StatusERNS0_3$_0EJRKNS0_13ConfigOptionsERKNSt7__cxx1112basic_stringIcSt11char_traitsIcESaIcEEESE_PvEENSt9enable_ifIX16is_invocable_r_vIT_T0_DpT1_EESH_E4typeEOSI_DpOSJ_.exit": ; preds = %6, %11
  call void @llvm.lifetime.end.p0(i64 8, ptr nonnull %7) #27, !noalias !613
  ret void
}